target datalayout = "e-m:e-p270:32:32-p271:32:32-p272:64:64-i64:64-i128:128-f80:128-n8:16:32:64-S128"
target triple = "x86_64-pc-linux-gnu"

%"class.std::ios_base::Init" = type { i8 }
%class.OutStream = type { ptr, ptr }

$_ZN11OpenImageIO6v3_1_010Filesystem7IOProxy4seekEli = comdat any

@_ZStL8__ioinit = internal global %"class.std::ios_base::Init" zeroinitializer, align 1
@__dso_handle = external hidden global i8
@_ZTV9OutStream = hidden unnamed_addr constant { [8 x ptr] } { [8 x ptr] [ptr null, ptr @_ZTI9OutStream, ptr @_ZN9OutStreamD1Ev, ptr @_ZN9OutStreamD0Ev, ptr @_ZN9OutStream5CloseEv, ptr @_ZN9OutStream5WriteEPvm, ptr @_ZN9OutStream4SeekElNS_6OriginE, ptr @_ZN9OutStream5FlushEv] }, align 8
@_ZTI9OutStream = hidden constant { ptr, ptr } { ptr getelementptr inbounds (ptr, ptr @_ZTVN10__cxxabiv117__class_type_infoE, i64 2), ptr @_ZTS9OutStream }, align 8
@_ZTVN10__cxxabiv117__class_type_infoE = external global [0 x ptr]
@_ZTS9OutStream = hidden constant [11 x i8] c"9OutStream\00", align 1
@llvm.global_ctors = appending global [1 x { i32, ptr, ptr }] [{ i32, ptr, ptr } { i32 65535, ptr @_GLOBAL__sub_I_OutStream.cpp, ptr null }]

@_ZN9OutStreamD1Ev = hidden unnamed_addr alias void (ptr), ptr @_ZN9OutStreamD2Ev

; Function Attrs: uwtable
define internal void @__cxx_global_var_init() #0 section ".text.startup" {
  call void @_ZNSt8ios_base4InitC1Ev(ptr noundef nonnull align 1 dereferenceable(1) @_ZStL8__ioinit)
  %1 = call i32 @__cxa_atexit(ptr @_ZNSt8ios_base4InitD1Ev, ptr @_ZStL8__ioinit, ptr @__dso_handle) #3
  ret void
}

declare void @_ZNSt8ios_base4InitC1Ev(ptr noundef nonnull align 1 dereferenceable(1)) unnamed_addr #1

; Function Attrs: nounwind
declare void @_ZNSt8ios_base4InitD1Ev(ptr noundef nonnull align 1 dereferenceable(1)) unnamed_addr #2

; Function Attrs: nounwind
declare i32 @__cxa_atexit(ptr, ptr, ptr) #3

; Function Attrs: nobuiltin nounwind
declare void @_ZdlPvm(ptr noundef, i64 noundef) #4

; Function Attrs: mustprogress nounwind uwtable
define hidden void @_ZN9OutStreamD2Ev(ptr noundef nonnull align 8 dereferenceable(16) %0) unnamed_addr #5 align 2 {
  %2 = alloca ptr, align 8
  store ptr %0, ptr %2, align 8, !tbaa !3
  ret void
}

; Function Attrs: mustprogress nounwind uwtable
define hidden void @_ZN9OutStreamD0Ev(ptr noundef nonnull align 8 dereferenceable(16) %0) unnamed_addr #5 align 2 {
  %2 = alloca ptr, align 8
  store ptr %0, ptr %2, align 8, !tbaa !3
  %3 = load ptr, ptr %2, align 8
  call void @_ZN9OutStreamD1Ev(ptr noundef nonnull align 8 dereferenceable(16) %3) #3
  call void @_ZdlPvm(ptr noundef %3, i64 noundef 16) #8
  ret void
}

; Function Attrs: mustprogress nounwind uwtable
define hidden void @_ZN9OutStream5CloseEv(ptr noundef nonnull align 8 dereferenceable(16) %0) unnamed_addr #5 align 2 {
  %2 = alloca ptr, align 8
  store ptr %0, ptr %2, align 8, !tbaa !3
  %3 = load ptr, ptr %2, align 8
  %4 = getelementptr inbounds nuw %class.OutStream, ptr %3, i32 0, i32 1
  %5 = load ptr, ptr %4, align 8, !tbaa !8
  %6 = icmp ne ptr %5, null
  br i1 %6, label %7, label %9

7:                                                ; preds = %1
  %8 = getelementptr inbounds nuw %class.OutStream, ptr %3, i32 0, i32 1
  store ptr null, ptr %8, align 8, !tbaa !8
  br label %9

9:                                                ; preds = %7, %1
  ret void
}

; Function Attrs: mustprogress uwtable
define hidden noundef i64 @_ZN9OutStream5WriteEPvm(ptr noundef nonnull align 8 dereferenceable(16) %0, ptr noundef %1, i64 noundef %2) unnamed_addr #6 align 2 {
  %4 = alloca i64, align 8
  %5 = alloca ptr, align 8
  %6 = alloca ptr, align 8
  %7 = alloca i64, align 8
  store ptr %0, ptr %5, align 8, !tbaa !3
  store ptr %1, ptr %6, align 8, !tbaa !11
  store i64 %2, ptr %7, align 8, !tbaa !12
  %8 = load ptr, ptr %5, align 8
  %9 = getelementptr inbounds nuw %class.OutStream, ptr %8, i32 0, i32 1
  %10 = load ptr, ptr %9, align 8, !tbaa !8
  %11 = icmp eq ptr %10, null
  br i1 %11, label %12, label %13

12:                                               ; preds = %3
  store i64 0, ptr %4, align 8
  br label %22

13:                                               ; preds = %3
  %14 = getelementptr inbounds nuw %class.OutStream, ptr %8, i32 0, i32 1
  %15 = load ptr, ptr %14, align 8, !tbaa !8
  %16 = load ptr, ptr %6, align 8, !tbaa !11
  %17 = load i64, ptr %7, align 8, !tbaa !12
  %18 = load ptr, ptr %15, align 8, !tbaa !14
  %19 = getelementptr inbounds ptr, ptr %18, i64 8
  %20 = load ptr, ptr %19, align 8
  %21 = call noundef i64 %20(ptr noundef nonnull align 8 dereferenceable(88) %15, ptr noundef %16, i64 noundef %17)
  store i64 %21, ptr %4, align 8
  br label %22

22:                                               ; preds = %13, %12
  %23 = load i64, ptr %4, align 8
  ret i64 %23
}

; Function Attrs: mustprogress uwtable
define hidden noundef zeroext i1 @_ZN9OutStream4SeekElNS_6OriginE(ptr noundef nonnull align 8 dereferenceable(16) %0, i64 noundef %1, i32 noundef %2) unnamed_addr #6 align 2 {
  %4 = alloca i1, align 1
  %5 = alloca ptr, align 8
  %6 = alloca i64, align 8
  %7 = alloca i32, align 4
  %8 = alloca i32, align 4
  %9 = alloca i32, align 4
  store ptr %0, ptr %5, align 8, !tbaa !3
  store i64 %1, ptr %6, align 8, !tbaa !12
  store i32 %2, ptr %7, align 4, !tbaa !16
  %10 = load ptr, ptr %5, align 8
  call void @llvm.lifetime.start.p0(i64 4, ptr %8) #3
  store i32 0, ptr %8, align 4, !tbaa !18
  %11 = getelementptr inbounds nuw %class.OutStream, ptr %10, i32 0, i32 1
  %12 = load ptr, ptr %11, align 8, !tbaa !8
  %13 = icmp ne ptr %12, null
  br i1 %13, label %15, label %14

14:                                               ; preds = %3
  store i1 false, ptr %4, align 1
  store i32 1, ptr %9, align 4
  br label %26

15:                                               ; preds = %3
  %16 = load i32, ptr %7, align 4, !tbaa !16
  switch i32 %16, label %20 [
    i32 1, label %17
    i32 2, label %18
    i32 0, label %19
  ]

17:                                               ; preds = %15
  store i32 1, ptr %8, align 4, !tbaa !18
  br label %20

18:                                               ; preds = %15
  store i32 2, ptr %8, align 4, !tbaa !18
  br label %20

19:                                               ; preds = %15
  store i32 0, ptr %8, align 4, !tbaa !18
  br label %20

20:                                               ; preds = %15, %19, %18, %17
  %21 = getelementptr inbounds nuw %class.OutStream, ptr %10, i32 0, i32 1
  %22 = load ptr, ptr %21, align 8, !tbaa !8
  %23 = load i64, ptr %6, align 8, !tbaa !12
  %24 = load i32, ptr %8, align 4, !tbaa !18
  %25 = call noundef zeroext i1 @_ZN11OpenImageIO6v3_1_010Filesystem7IOProxy4seekEli(ptr noundef nonnull align 8 dereferenceable(88) %22, i64 noundef %23, i32 noundef %24)
  store i1 %25, ptr %4, align 1
  store i32 1, ptr %9, align 4
  br label %26

26:                                               ; preds = %20, %14
  call void @llvm.lifetime.end.p0(i64 4, ptr %8) #3
  %27 = load i1, ptr %4, align 1
  ret i1 %27
}

; Function Attrs: nocallback nofree nosync nounwind willreturn memory(argmem: readwrite)
declare void @llvm.lifetime.start.p0(i64 immarg, ptr captures(none)) #7

; Function Attrs: mustprogress uwtable
define linkonce_odr noundef zeroext i1 @_ZN11OpenImageIO6v3_1_010Filesystem7IOProxy4seekEli(ptr noundef nonnull align 8 dereferenceable(88) %0, i64 noundef %1, i32 noundef %2) #6 comdat align 2 {
  %4 = alloca ptr, align 8
  %5 = alloca i64, align 8
  %6 = alloca i32, align 4
  store ptr %0, ptr %4, align 8, !tbaa !20
  store i64 %1, ptr %5, align 8, !tbaa !12
  store i32 %2, ptr %6, align 4, !tbaa !18
  %7 = load ptr, ptr %4, align 8
  %8 = load i32, ptr %6, align 4, !tbaa !18
  %9 = icmp eq i32 %8, 0
  br i1 %9, label %10, label %12

10:                                               ; preds = %3
  %11 = load i64, ptr %5, align 8, !tbaa !12
  br label %13

12:                                               ; preds = %3
  br label %13

13:                                               ; preds = %12, %10
  %14 = phi i64 [ %11, %10 ], [ 0, %12 ]
  %15 = load i32, ptr %6, align 4, !tbaa !18
  %16 = icmp eq i32 %15, 1
  br i1 %16, label %17, label %24

17:                                               ; preds = %13
  %18 = load i64, ptr %5, align 8, !tbaa !12
  %19 = load ptr, ptr %7, align 8, !tbaa !14
  %20 = getelementptr inbounds ptr, ptr %19, i64 5
  %21 = load ptr, ptr %20, align 8
  %22 = call noundef i64 %21(ptr noundef nonnull align 8 dereferenceable(88) %7)
  %23 = add nsw i64 %18, %22
  br label %25

24:                                               ; preds = %13
  br label %25

25:                                               ; preds = %24, %17
  %26 = phi i64 [ %23, %17 ], [ 0, %24 ]
  %27 = add nsw i64 %14, %26
  %28 = load i32, ptr %6, align 4, !tbaa !18
  %29 = icmp eq i32 %28, 2
  br i1 %29, label %30, label %37

30:                                               ; preds = %25
  %31 = load i64, ptr %5, align 8, !tbaa !12
  %32 = load ptr, ptr %7, align 8, !tbaa !14
  %33 = getelementptr inbounds ptr, ptr %32, i64 11
  %34 = load ptr, ptr %33, align 8
  %35 = call noundef i64 %34(ptr noundef nonnull align 8 dereferenceable(88) %7)
  %36 = add nsw i64 %31, %35
  br label %38

37:                                               ; preds = %25
  br label %38

38:                                               ; preds = %37, %30
  %39 = phi i64 [ %36, %30 ], [ 0, %37 ]
  %40 = add nsw i64 %27, %39
  %41 = load ptr, ptr %7, align 8, !tbaa !14
  %42 = getelementptr inbounds ptr, ptr %41, i64 6
  %43 = load ptr, ptr %42, align 8
  %44 = call noundef zeroext i1 %43(ptr noundef nonnull align 8 dereferenceable(88) %7, i64 noundef %40)
  ret i1 %44
}

; Function Attrs: nocallback nofree nosync nounwind willreturn memory(argmem: readwrite)
declare void @llvm.lifetime.end.p0(i64 immarg, ptr captures(none)) #7

; Function Attrs: mustprogress uwtable
define hidden void @_ZN9OutStream5FlushEv(ptr noundef nonnull align 8 dereferenceable(16) %0) unnamed_addr #6 align 2 {
  %2 = alloca ptr, align 8
  store ptr %0, ptr %2, align 8, !tbaa !3
  %3 = load ptr, ptr %2, align 8
  %4 = getelementptr inbounds nuw %class.OutStream, ptr %3, i32 0, i32 1
  %5 = load ptr, ptr %4, align 8, !tbaa !8
  %6 = icmp ne ptr %5, null
  br i1 %6, label %7, label %13

7:                                                ; preds = %1
  %8 = getelementptr inbounds nuw %class.OutStream, ptr %3, i32 0, i32 1
  %9 = load ptr, ptr %8, align 8, !tbaa !8
  %10 = load ptr, ptr %9, align 8, !tbaa !14
  %11 = getelementptr inbounds ptr, ptr %10, i64 12
  %12 = load ptr, ptr %11, align 8
  call void %12(ptr noundef nonnull align 8 dereferenceable(88) %9)
  br label %13

13:                                               ; preds = %7, %1
  ret void
}

; Function Attrs: uwtable
define internal void @_GLOBAL__sub_I_OutStream.cpp() #0 section ".text.startup" {
  call void @__cxx_global_var_init()
  ret void
}


!llvm.module.flags = !{!0, !1, !2}

!0 = !{i32 1, !"wchar_size", i32 4}
!1 = !{i32 8, !"PIC Level", i32 2}
!2 = !{i32 7, !"uwtable", i32 2}
!3 = !{!4, !4, i64 0}
!4 = !{!"p1 _ZTS9OutStream", !5, i64 0}
!5 = !{!"any pointer", !6, i64 0}
!6 = !{!"omnipotent char", !7, i64 0}
!7 = !{!"Simple C++ TBAA"}
!8 = !{!9, !10, i64 8}
!9 = !{!"_ZTS9OutStream", !10, i64 8}
!10 = !{!"p1 _ZTSN11OpenImageIO6v3_1_010Filesystem7IOProxyE", !5, i64 0}
!11 = !{!5, !5, i64 0}
!12 = !{!13, !13, i64 0}
!13 = !{!"long", !6, i64 0}
!14 = !{!15, !15, i64 0}
!15 = !{!"vtable pointer", !7, i64 0}
!16 = !{!17, !17, i64 0}
!17 = !{!"_ZTSN9OutStream6OriginE", !6, i64 0}
!18 = !{!19, !19, i64 0}
!19 = !{!"int", !6, i64 0}
!20 = !{!10, !10, i64 0}
