; ModuleID = 'bench/oiio/original/OutStream.ll'
source_filename = "bench/oiio/original/OutStream.ll"
target datalayout = "e-m:e-p270:32:32-p271:32:32-p272:64:64-i64:64-i128:128-f80:128-n8:16:32:64-S128"
target triple = "x86_64-pc-linux-gnu"

%"class.std::ios_base::Init" = type { i8 }

@_ZStL8__ioinit = internal global %"class.std::ios_base::Init" zeroinitializer, align 1
@__dso_handle = external hidden global i8
@_ZTV9OutStream = hidden unnamed_addr constant { [8 x ptr] } { [8 x ptr] [ptr null, ptr @_ZTI9OutStream, ptr @_ZN9OutStreamD2Ev, ptr @_ZN9OutStreamD0Ev, ptr @_ZN9OutStream5CloseEv, ptr @_ZN9OutStream5WriteEPvm, ptr @_ZN9OutStream4SeekElNS_6OriginE, ptr @_ZN9OutStream5FlushEv] }, align 8
@_ZTI9OutStream = hidden constant { ptr, ptr } { ptr getelementptr inbounds (ptr, ptr @_ZTVN10__cxxabiv117__class_type_infoE, i64 2), ptr @_ZTS9OutStream }, align 8
@_ZTVN10__cxxabiv117__class_type_infoE = external global [0 x ptr]
@_ZTS9OutStream = hidden constant [11 x i8] c"9OutStream\00", align 1
@llvm.global_ctors = appending global [1 x { i32, ptr, ptr }] [{ i32, ptr, ptr } { i32 65535, ptr @_GLOBAL__sub_I_OutStream.cpp, ptr null }]

@_ZN9OutStreamD1Ev = hidden unnamed_addr alias void (ptr), ptr @_ZN9OutStreamD2Ev

declare void @_ZNSt8ios_base4InitC1Ev(ptr noundef nonnull align 1 dereferenceable(1)) unnamed_addr #0

; Function Attrs: nounwind
declare void @_ZNSt8ios_base4InitD1Ev(ptr noundef nonnull align 1 dereferenceable(1)) unnamed_addr #1

; Function Attrs: nofree nounwind
declare i32 @__cxa_atexit(ptr, ptr, ptr) local_unnamed_addr #2

; Function Attrs: nobuiltin nounwind
declare void @_ZdlPvm(ptr noundef, i64 noundef) local_unnamed_addr #3

; Function Attrs: mustprogress nofree norecurse nosync nounwind willreturn memory(none) uwtable
define hidden void @_ZN9OutStreamD2Ev(ptr nonnull readnone align 8 captures(none) %0) unnamed_addr #4 align 2 {
  ret void
}

; Function Attrs: mustprogress nounwind uwtable
define hidden void @_ZN9OutStreamD0Ev(ptr noundef nonnull align 8 dereferenceable(16) %0) unnamed_addr #5 align 2 {
  tail call void @_ZdlPvm(ptr noundef nonnull %0, i64 noundef 16) #9
  ret void
}

; Function Attrs: mustprogress nofree norecurse nosync nounwind willreturn memory(argmem: readwrite) uwtable
define hidden void @_ZN9OutStream5CloseEv(ptr noundef nonnull align 8 captures(none) dereferenceable(16) %0) unnamed_addr #6 align 2 {
  %2 = getelementptr inbounds nuw i8, ptr %0, i64 8
  %3 = load ptr, ptr %2, align 8, !tbaa !3
  %.not = icmp eq ptr %3, null
  br i1 %.not, label %5, label %4

4:                                                ; preds = %1
  store ptr null, ptr %2, align 8, !tbaa !3
  br label %5

5:                                                ; preds = %4, %1
  ret void
}

; Function Attrs: mustprogress uwtable
define hidden noundef i64 @_ZN9OutStream5WriteEPvm(ptr noundef nonnull readonly align 8 captures(none) dereferenceable(16) %0, ptr noundef %1, i64 noundef %2) unnamed_addr #7 align 2 {
  %4 = getelementptr inbounds nuw i8, ptr %0, i64 8
  %5 = load ptr, ptr %4, align 8, !tbaa !3
  %6 = icmp eq ptr %5, null
  br i1 %6, label %12, label %7

7:                                                ; preds = %3
  %8 = load ptr, ptr %5, align 8, !tbaa !9
  %9 = getelementptr inbounds nuw i8, ptr %8, i64 64
  %10 = load ptr, ptr %9, align 8
  %11 = tail call noundef i64 %10(ptr noundef nonnull align 8 dereferenceable(88) %5, ptr noundef %1, i64 noundef %2)
  br label %12

12:                                               ; preds = %3, %7
  %.0 = phi i64 [ %11, %7 ], [ 0, %3 ]
  ret i64 %.0
}

; Function Attrs: mustprogress uwtable
define hidden noundef zeroext i1 @_ZN9OutStream4SeekElNS_6OriginE(ptr noundef nonnull readonly align 8 captures(none) dereferenceable(16) %0, i64 noundef %1, i32 noundef %2) unnamed_addr #7 align 2 {
  %4 = getelementptr inbounds nuw i8, ptr %0, i64 8
  %5 = load ptr, ptr %4, align 8, !tbaa !3
  %.not = icmp eq ptr %5, null
  br i1 %.not, label %28, label %6

6:                                                ; preds = %3
  %switch.selectcmp = icmp eq i32 %2, 2
  %switch.select = select i1 %switch.selectcmp, i32 2, i32 0
  %switch.selectcmp5 = icmp eq i32 %2, 1
  %switch.select6 = select i1 %switch.selectcmp5, i32 1, i32 %switch.select
  switch i32 %switch.select6, label %_ZN11OpenImageIO6v3_1_010Filesystem7IOProxy4seekEli.exit [
    i32 1, label %.thread.i
    i32 2, label %12
  ]

.thread.i:                                        ; preds = %6
  %7 = load ptr, ptr %5, align 8, !tbaa !9
  %8 = getelementptr inbounds nuw i8, ptr %7, i64 40
  %9 = load ptr, ptr %8, align 8
  %10 = tail call noundef i64 %9(ptr noundef nonnull align 8 dereferenceable(88) %5)
  %11 = add nsw i64 %10, %1
  br label %_ZN11OpenImageIO6v3_1_010Filesystem7IOProxy4seekEli.exit

12:                                               ; preds = %6
  %13 = load ptr, ptr %5, align 8, !tbaa !9
  %14 = getelementptr inbounds nuw i8, ptr %13, i64 88
  %15 = load ptr, ptr %14, align 8
  %16 = tail call noundef i64 %15(ptr noundef nonnull align 8 dereferenceable(88) %5)
  %17 = add nsw i64 %16, %1
  br label %_ZN11OpenImageIO6v3_1_010Filesystem7IOProxy4seekEli.exit

_ZN11OpenImageIO6v3_1_010Filesystem7IOProxy4seekEli.exit: ; preds = %6, %.thread.i, %12
  %18 = phi i64 [ 0, %12 ], [ %11, %.thread.i ], [ 0, %6 ]
  %19 = phi i64 [ %17, %12 ], [ 0, %.thread.i ], [ 0, %6 ]
  %20 = icmp eq i32 %switch.select6, 0
  %21 = select i1 %20, i64 %1, i64 0
  %22 = add nsw i64 %18, %21
  %23 = add nsw i64 %22, %19
  %24 = load ptr, ptr %5, align 8, !tbaa !9
  %25 = getelementptr inbounds nuw i8, ptr %24, i64 48
  %26 = load ptr, ptr %25, align 8
  %27 = tail call noundef zeroext i1 %26(ptr noundef nonnull align 8 dereferenceable(88) %5, i64 noundef %23)
  br label %28

28:                                               ; preds = %3, %_ZN11OpenImageIO6v3_1_010Filesystem7IOProxy4seekEli.exit
  %.04 = phi i1 [ %27, %_ZN11OpenImageIO6v3_1_010Filesystem7IOProxy4seekEli.exit ], [ false, %3 ]
  ret i1 %.04
}

; Function Attrs: mustprogress uwtable
define hidden void @_ZN9OutStream5FlushEv(ptr noundef nonnull readonly align 8 captures(none) dereferenceable(16) %0) unnamed_addr #7 align 2 {
  %2 = getelementptr inbounds nuw i8, ptr %0, i64 8
  %3 = load ptr, ptr %2, align 8, !tbaa !3
  %.not = icmp eq ptr %3, null
  br i1 %.not, label %8, label %4

4:                                                ; preds = %1
  %5 = load ptr, ptr %3, align 8, !tbaa !9
  %6 = getelementptr inbounds nuw i8, ptr %5, i64 96
  %7 = load ptr, ptr %6, align 8
  tail call void %7(ptr noundef nonnull align 8 dereferenceable(88) %3)
  br label %8

8:                                                ; preds = %4, %1
  ret void
}

; Function Attrs: uwtable
define internal void @_GLOBAL__sub_I_OutStream.cpp() #8 section ".text.startup" {
  tail call void @_ZNSt8ios_base4InitC1Ev(ptr noundef nonnull align 1 dereferenceable(1) @_ZStL8__ioinit)
  %1 = tail call i32 @__cxa_atexit(ptr nonnull @_ZNSt8ios_base4InitD1Ev, ptr nonnull @_ZStL8__ioinit, ptr nonnull @__dso_handle) #10
  ret void
}


!llvm.module.flags = !{!0, !1, !2}

!0 = !{i32 1, !"wchar_size", i32 4}
!1 = !{i32 8, !"PIC Level", i32 2}
!2 = !{i32 7, !"uwtable", i32 2}
!3 = !{!4, !5, i64 8}
!4 = !{!"_ZTS9OutStream", !5, i64 8}
!5 = !{!"p1 _ZTSN11OpenImageIO6v3_1_010Filesystem7IOProxyE", !6, i64 0}
!6 = !{!"any pointer", !7, i64 0}
!7 = !{!"omnipotent char", !8, i64 0}
!8 = !{!"Simple C++ TBAA"}
!9 = !{!10, !10, i64 0}
!10 = !{!"vtable pointer", !8, i64 0}
